target datalayout = "e-m:e-p270:32:32-p271:32:32-p272:64:64-i64:64-i128:128-f80:128-n8:16:32:64-S128"
target triple = "x86_64-pc-linux-gnu"

%class.SerializeClosure = type { ptr }
%class.FileMapInfo = type { i8, i8, i8, i32, i64, ptr, ptr, ptr }
%class.ReadClosure = type { %class.SerializeClosure, ptr }
%class.CountSharedSymbols = type <{ %class.SymbolClosure, i32, [4 x i8] }>
%class.SymbolClosure = type { ptr }
%class.FileMapHeader = type { %struct.CDSFileMapHeaderBase, i64, i32, ptr, i32, i8, i64, i32, i8, i8, i8, i64, i64, i8, i32, [256 x i8], i64, i16, i16, i16, i32, i8, i8, i8, ptr, ptr, i8, i8, i8, i64, i64, i64, i64, i64 }
%struct.CDSFileMapHeaderBase = type { %struct.GenericCDSFileMapHeader, [4 x %struct.CDSFileMapRegion] }
%struct.GenericCDSFileMapHeader = type { i32, i32, i32, i32, i32, i32 }
%struct.CDSFileMapRegion = type { i32, i32, i32, i32, i32, i32, i64, i64, i64, i64, i64, i64, i64, ptr }

@_ZN15MetaspaceShared23_archive_loading_failedE = hidden global i8 0, align 1
@PrintSharedArchiveAndExit = external global i8, align 1
@tty = external global ptr, align 8
@.str.69 = private unnamed_addr constant [24 x i8] c"\0A\0ABase archive name: %s\00", align 1
@.str.70 = private unnamed_addr constant [24 x i8] c"Base archive version %d\00", align 1
@.str.71 = private unnamed_addr constant [24 x i8] c"Static archive name: %s\00", align 1
@.str.72 = private unnamed_addr constant [26 x i8] c"Static archive version %d\00", align 1
@.str.73 = private unnamed_addr constant [27 x i8] c"\0A\0ADynamic archive name: %s\00", align 1
@.str.74 = private unnamed_addr constant [27 x i8] c"Dynamic archive version %d\00", align 1
@.str.75 = private unnamed_addr constant [29 x i8] c"Number of shared symbols: %d\00", align 1
@.str.76 = private unnamed_addr constant [30 x i8] c"Number of shared strings: %zu\00", align 1
@.str.77 = private unnamed_addr constant [17 x i8] c"VM version: %s\0D\0A\00", align 1
@.str.78 = private unnamed_addr constant [19 x i8] c"archive is invalid\00", align 1
@.str.79 = private unnamed_addr constant [17 x i8] c"archive is valid\00", align 1
@_ZN9CDSConfig27_is_dumping_dynamic_archiveE = external global i8, align 1
@_ZN11FileMapInfo21_dynamic_archive_infoE = external global ptr, align 8
@_ZN11FileMapInfo13_current_infoE = external global ptr, align 8
@_ZN9CDSConfig20_static_archive_pathE = external global ptr, align 8
@_ZTV11ReadClosure = external unnamed_addr constant { [9 x ptr] }, align 8
@_ZTV18CountSharedSymbols = linkonce_odr hidden unnamed_addr constant { [3 x ptr] } { [3 x ptr] [ptr null, ptr null, ptr @_ZN18CountSharedSymbols9do_symbolEPP6Symbol] }, comdat, align 8
@_ZTV13SymbolClosure = linkonce_odr hidden unnamed_addr constant { [3 x ptr] } { [3 x ptr] [ptr null, ptr null, ptr @__cxa_pure_virtual] }, comdat, align 8

; Function Attrs: mustprogress nounwind uwtable
define linkonce_odr hidden noundef ptr @_ZNK13FileMapHeader19mapped_base_addressEv(ptr noundef nonnull align 8 dereferenceable(792) %0) #1 comdat align 2 {
  %2 = alloca ptr, align 8
  store ptr %0, ptr %2, align 8
  %3 = load ptr, ptr %2, align 8
  %4 = getelementptr inbounds %class.FileMapHeader, ptr %3, i32 0, i32 25
  %5 = load ptr, ptr %4, align 8
  ret ptr %5
}

; Function Attrs: mustprogress nounwind uwtable
define linkonce_odr hidden noundef ptr @_ZNK13FileMapHeader18from_mapped_offsetEm(ptr noundef nonnull align 8 dereferenceable(792) %0, i64 noundef %1) #1 comdat align 2 {
  %3 = alloca ptr, align 8
  %4 = alloca i64, align 8
  store ptr %0, ptr %3, align 8
  store i64 %1, ptr %4, align 8
  %5 = load ptr, ptr %3, align 8
  %6 = call noundef ptr @_ZNK13FileMapHeader19mapped_base_addressEv(ptr noundef nonnull align 8 dereferenceable(792) %5)
  %7 = load i64, ptr %4, align 8
  %8 = getelementptr inbounds i8, ptr %6, i64 %7
  ret ptr %8
}

; Function Attrs: mustprogress nounwind uwtable
define linkonce_odr hidden noundef ptr @_ZNK13FileMapHeader9jvm_identEv(ptr noundef nonnull align 8 dereferenceable(792) %0) #1 comdat align 2 {
  %2 = alloca ptr, align 8
  store ptr %0, ptr %2, align 8
  %3 = load ptr, ptr %2, align 8
  %4 = getelementptr inbounds %class.FileMapHeader, ptr %3, i32 0, i32 15
  %5 = getelementptr inbounds [256 x i8], ptr %4, i64 0, i64 0
  ret ptr %5
}

; Function Attrs: mustprogress nounwind uwtable
define linkonce_odr hidden void @_ZN13SymbolClosureC2Ev(ptr noundef nonnull align 8 dereferenceable(8) %0) unnamed_addr #1 comdat align 2 {
  %2 = alloca ptr, align 8
  store ptr %0, ptr %2, align 8
  %3 = load ptr, ptr %2, align 8
  store ptr getelementptr inbounds inrange(-16, 8) ({ [3 x ptr] }, ptr @_ZTV13SymbolClosure, i32 0, i32 0, i32 2), ptr %3, align 8
  ret void
}

; Function Attrs: mustprogress nounwind uwtable
define linkonce_odr hidden noundef i32 @_ZNK13FileMapHeader7versionEv(ptr noundef nonnull align 8 dereferenceable(792) %0) #1 comdat align 2 {
  %2 = alloca ptr, align 8
  store ptr %0, ptr %2, align 8
  %3 = load ptr, ptr %2, align 8
  %4 = getelementptr inbounds %struct.CDSFileMapHeaderBase, ptr %3, i32 0, i32 0
  %5 = getelementptr inbounds %struct.GenericCDSFileMapHeader, ptr %4, i32 0, i32 2
  %6 = load i32, ptr %5, align 8
  ret i32 %6
}

; Function Attrs: mustprogress nounwind uwtable
define linkonce_odr hidden void @_ZN16SerializeClosureC2Ev(ptr noundef nonnull align 8 dereferenceable(8) %0) unnamed_addr #1 comdat align 2 {
  %2 = alloca ptr, align 8
  store ptr %0, ptr %2, align 8
  %3 = load ptr, ptr %2, align 8
  store ptr getelementptr inbounds inrange(-16, 56) ({ [9 x ptr] }, ptr @_ZTV16SerializeClosure, i32 0, i32 0, i32 2), ptr %3, align 8
  ret void
}

; Function Attrs: mustprogress nounwind uwtable
define linkonce_odr hidden noundef ptr @_ZNK13FileMapHeader15serialized_dataEv(ptr noundef nonnull align 8 dereferenceable(792) %0) #1 comdat align 2 {
  %2 = alloca ptr, align 8
  store ptr %0, ptr %2, align 8
  %3 = load ptr, ptr %2, align 8
  %4 = getelementptr inbounds %class.FileMapHeader, ptr %3, i32 0, i32 12
  %5 = load i64, ptr %4, align 8
  %6 = call noundef ptr @_ZNK13FileMapHeader18from_mapped_offsetEm(ptr noundef nonnull align 8 dereferenceable(792) %3, i64 noundef %5)
  ret ptr %6
}

; Function Attrs: mustprogress nounwind uwtable
define linkonce_odr hidden noundef ptr @_ZNK11FileMapInfo6headerEv(ptr noundef nonnull align 8 dereferenceable(40) %0) #1 comdat align 2 {
  %2 = alloca ptr, align 8
  store ptr %0, ptr %2, align 8
  %3 = load ptr, ptr %2, align 8
  %4 = getelementptr inbounds %class.FileMapInfo, ptr %3, i32 0, i32 7
  %5 = load ptr, ptr %4, align 8
  ret ptr %5
}

; Function Attrs: mustprogress nounwind uwtable
define linkonce_odr hidden noundef ptr @_ZN11FileMapInfo10vm_versionEv(ptr noundef nonnull align 8 dereferenceable(40) %0) #1 comdat align 2 {
  %2 = alloca ptr, align 8
  store ptr %0, ptr %2, align 8
  %3 = load ptr, ptr %2, align 8
  %4 = call noundef ptr @_ZNK11FileMapInfo6headerEv(ptr noundef nonnull align 8 dereferenceable(40) %3)
  %5 = call noundef ptr @_ZNK13FileMapHeader9jvm_identEv(ptr noundef nonnull align 8 dereferenceable(792) %4)
  ret ptr %5
}

; Function Attrs: mustprogress nounwind uwtable
define linkonce_odr hidden noundef i32 @_ZN18CountSharedSymbols5totalEv(ptr noundef nonnull align 8 dereferenceable(12) %0) #1 comdat align 2 {
  %2 = alloca ptr, align 8
  store ptr %0, ptr %2, align 8
  %3 = load ptr, ptr %2, align 8
  %4 = getelementptr inbounds %class.CountSharedSymbols, ptr %3, i32 0, i32 1
  %5 = load i32, ptr %4, align 8
  ret i32 %5
}

; Function Attrs: mustprogress nounwind uwtable
define linkonce_odr hidden void @_ZN18CountSharedSymbolsC2Ev(ptr noundef nonnull align 8 dereferenceable(12) %0) unnamed_addr #1 comdat align 2 {
  %2 = alloca ptr, align 8
  store ptr %0, ptr %2, align 8
  %3 = load ptr, ptr %2, align 8
  call void @_ZN13SymbolClosureC2Ev(ptr noundef nonnull align 8 dereferenceable(8) %3) #4
  store ptr getelementptr inbounds inrange(-16, 8) ({ [3 x ptr] }, ptr @_ZTV18CountSharedSymbols, i32 0, i32 0, i32 2), ptr %3, align 8
  %4 = getelementptr inbounds %class.CountSharedSymbols, ptr %3, i32 0, i32 1
  store i32 0, ptr %4, align 8
  ret void
}

; Function Attrs: mustprogress nounwind uwtable
define linkonce_odr hidden noundef ptr @_ZNK11FileMapInfo9full_pathEv(ptr noundef nonnull align 8 dereferenceable(40) %0) #1 comdat align 2 {
  %2 = alloca ptr, align 8
  store ptr %0, ptr %2, align 8
  %3 = load ptr, ptr %2, align 8
  %4 = getelementptr inbounds %class.FileMapInfo, ptr %3, i32 0, i32 5
  %5 = load ptr, ptr %4, align 8
  ret ptr %5
}

; Function Attrs: mustprogress nounwind uwtable
define linkonce_odr hidden noundef i32 @_ZNK11FileMapInfo7versionEv(ptr noundef nonnull align 8 dereferenceable(40) %0) #1 comdat align 2 {
  %2 = alloca ptr, align 8
  store ptr %0, ptr %2, align 8
  %3 = load ptr, ptr %2, align 8
  %4 = call noundef ptr @_ZNK11FileMapInfo6headerEv(ptr noundef nonnull align 8 dereferenceable(40) %3)
  %5 = call noundef i32 @_ZNK13FileMapHeader7versionEv(ptr noundef nonnull align 8 dereferenceable(792) %4)
  ret i32 %5
}

; Function Attrs: mustprogress nounwind uwtable
define linkonce_odr hidden noundef ptr @_ZN9CDSConfig19static_archive_pathEv() #1 comdat align 2 {
  %1 = load ptr, ptr @_ZN9CDSConfig20_static_archive_pathE, align 8
  ret ptr %1
}

; Function Attrs: mustprogress nounwind uwtable
define linkonce_odr hidden noundef zeroext i1 @_ZN9CDSConfig26is_dumping_dynamic_archiveEv() #1 comdat align 2 {
  %1 = load i8, ptr @_ZN9CDSConfig27_is_dumping_dynamic_archiveE, align 1
  %2 = trunc i8 %1 to i1
  ret i1 %2
}

; Function Attrs: mustprogress nounwind uwtable
define linkonce_odr hidden noundef ptr @_ZN11FileMapInfo12dynamic_infoEv() #1 comdat align 2 {
  %1 = load ptr, ptr @_ZN11FileMapInfo21_dynamic_archive_infoE, align 8
  ret ptr %1
}

; Function Attrs: mustprogress nounwind uwtable
define linkonce_odr hidden void @_ZN11ReadClosureC2EPPl(ptr noundef nonnull align 8 dereferenceable(16) %0, ptr noundef %1) unnamed_addr #1 comdat align 2 {
  %3 = alloca ptr, align 8
  %4 = alloca ptr, align 8
  store ptr %0, ptr %3, align 8
  store ptr %1, ptr %4, align 8
  %5 = load ptr, ptr %3, align 8
  call void @_ZN16SerializeClosureC2Ev(ptr noundef nonnull align 8 dereferenceable(8) %5) #4
  store ptr getelementptr inbounds inrange(-16, 56) ({ [9 x ptr] }, ptr @_ZTV11ReadClosure, i32 0, i32 0, i32 2), ptr %5, align 8
  %6 = load ptr, ptr %4, align 8
  %7 = getelementptr inbounds %class.ReadClosure, ptr %5, i32 0, i32 1
  store ptr %6, ptr %7, align 8
  ret void
}

; Function Attrs: mustprogress nounwind uwtable
define linkonce_odr hidden noundef ptr @_ZNK11FileMapInfo15serialized_dataEv(ptr noundef nonnull align 8 dereferenceable(40) %0) #1 comdat align 2 {
  %2 = alloca ptr, align 8
  store ptr %0, ptr %2, align 8
  %3 = load ptr, ptr %2, align 8
  %4 = call noundef ptr @_ZNK11FileMapInfo6headerEv(ptr noundef nonnull align 8 dereferenceable(40) %3)
  %5 = call noundef ptr @_ZNK13FileMapHeader15serialized_dataEv(ptr noundef nonnull align 8 dereferenceable(792) %4)
  ret ptr %5
}

; Function Attrs: mustprogress nounwind uwtable
define linkonce_odr hidden noundef ptr @_ZN11FileMapInfo12current_infoEv() #1 comdat align 2 {
  %1 = load ptr, ptr @_ZN11FileMapInfo13_current_infoE, align 8
  ret ptr %1
}

; Function Attrs: mustprogress nounwind uwtable
define hidden void @_ZN15MetaspaceShared24initialize_shared_spacesEv() #1 align 2 {
  %1 = alloca ptr, align 8
  %2 = alloca ptr, align 8
  %3 = alloca ptr, align 8
  %4 = alloca %class.ReadClosure, align 8
  %5 = alloca ptr, align 8
  %6 = alloca ptr, align 8
  %7 = alloca %class.ReadClosure, align 8
  %8 = alloca %class.CountSharedSymbols, align 8
  %9 = call noundef ptr @_ZN11FileMapInfo12current_infoEv()
  store ptr %9, ptr %1, align 8
  %10 = load ptr, ptr %1, align 8
  %11 = call noundef ptr @_ZNK11FileMapInfo15serialized_dataEv(ptr noundef nonnull align 8 dereferenceable(40) %10)
  store ptr %11, ptr %2, align 8
  %12 = load ptr, ptr %2, align 8
  store ptr %12, ptr %3, align 8
  call void @_ZN11ReadClosureC2EPPl(ptr noundef nonnull align 8 dereferenceable(16) %4, ptr noundef %3)
  call void @_ZN15MetaspaceShared9serializeEP16SerializeClosure(ptr noundef %4)
  %13 = load ptr, ptr %1, align 8
  call void @_ZN11FileMapInfo28patch_heap_embedded_pointersEv(ptr noundef nonnull align 8 dereferenceable(40) %13)
  call void @_ZN17ArchiveHeapLoader21finish_initializationEv()
  call void @_ZN8Universe30load_archived_object_instancesEv()
  %14 = load ptr, ptr %1, align 8
  call void @_ZN11FileMapInfo5closeEv(ptr noundef nonnull align 8 dereferenceable(40) %14)
  %15 = load ptr, ptr %1, align 8
  call void @_ZN11FileMapInfo12unmap_regionEi(ptr noundef nonnull align 8 dereferenceable(40) %15, i32 noundef 2)
  %16 = call noundef ptr @_ZN11FileMapInfo12dynamic_infoEv()
  store ptr %16, ptr %5, align 8
  %17 = load ptr, ptr %5, align 8
  %18 = icmp ne ptr %17, null
  br i1 %18, label %19, label %24

19:                                               ; preds = %0
  %20 = load ptr, ptr %5, align 8
  %21 = call noundef ptr @_ZNK11FileMapInfo15serialized_dataEv(ptr noundef nonnull align 8 dereferenceable(40) %20)
  store ptr %21, ptr %6, align 8
  call void @_ZN11ReadClosureC2EPPl(ptr noundef nonnull align 8 dereferenceable(16) %7, ptr noundef %6)
  call void @_ZN14ArchiveBuilder34serialize_dynamic_archivable_itemsEP16SerializeClosure(ptr noundef %7)
  call void @_ZN14DynamicArchive19setup_array_klassesEv()
  %22 = load ptr, ptr %5, align 8
  call void @_ZN11FileMapInfo5closeEv(ptr noundef nonnull align 8 dereferenceable(40) %22)
  %23 = load ptr, ptr %5, align 8
  call void @_ZN11FileMapInfo12unmap_regionEi(ptr noundef nonnull align 8 dereferenceable(40) %23, i32 noundef 2)
  br label %24

24:                                               ; preds = %19, %0
  %25 = call noundef zeroext i1 @_ZN9CDSConfig26is_dumping_dynamic_archiveEv()
  br i1 %25, label %26, label %27

26:                                               ; preds = %24
  call void @_ZN18LambdaFormInvokers28read_static_archive_invokersEv()
  br label %27

27:                                               ; preds = %26, %24
  %28 = load i8, ptr @PrintSharedArchiveAndExit, align 1
  %29 = trunc i8 %28 to i1
  br i1 %29, label %30, label %76

30:                                               ; preds = %27
  %31 = load ptr, ptr %5, align 8
  %32 = icmp ne ptr %31, null
  br i1 %32, label %33, label %39

33:                                               ; preds = %30
  %34 = load ptr, ptr @tty, align 8
  %35 = call noundef ptr @_ZN9CDSConfig19static_archive_pathEv()
  call void (ptr, ptr, ...) @_ZN12outputStream8print_crEPKcz(ptr noundef nonnull align 8 dereferenceable(56) %34, ptr noundef @.str.69, ptr noundef %35)
  %36 = load ptr, ptr @tty, align 8
  %37 = load ptr, ptr %1, align 8
  %38 = call noundef i32 @_ZNK11FileMapInfo7versionEv(ptr noundef nonnull align 8 dereferenceable(40) %37)
  call void (ptr, ptr, ...) @_ZN12outputStream8print_crEPKcz(ptr noundef nonnull align 8 dereferenceable(56) %36, ptr noundef @.str.70, i32 noundef %38)
  br label %46

39:                                               ; preds = %30
  %40 = load ptr, ptr @tty, align 8
  %41 = load ptr, ptr %1, align 8
  %42 = call noundef ptr @_ZNK11FileMapInfo9full_pathEv(ptr noundef nonnull align 8 dereferenceable(40) %41)
  call void (ptr, ptr, ...) @_ZN12outputStream8print_crEPKcz(ptr noundef nonnull align 8 dereferenceable(56) %40, ptr noundef @.str.71, ptr noundef %42)
  %43 = load ptr, ptr @tty, align 8
  %44 = load ptr, ptr %1, align 8
  %45 = call noundef i32 @_ZNK11FileMapInfo7versionEv(ptr noundef nonnull align 8 dereferenceable(40) %44)
  call void (ptr, ptr, ...) @_ZN12outputStream8print_crEPKcz(ptr noundef nonnull align 8 dereferenceable(56) %43, ptr noundef @.str.72, i32 noundef %45)
  br label %46

46:                                               ; preds = %39, %33
  %47 = load ptr, ptr @tty, align 8
  call void @_ZN22SystemDictionaryShared20print_shared_archiveEP12outputStreamb(ptr noundef %47, i1 noundef zeroext true)
  %48 = load ptr, ptr %5, align 8
  %49 = icmp ne ptr %48, null
  br i1 %49, label %50, label %58

50:                                               ; preds = %46
  %51 = load ptr, ptr @tty, align 8
  %52 = load ptr, ptr %5, align 8
  %53 = call noundef ptr @_ZNK11FileMapInfo9full_pathEv(ptr noundef nonnull align 8 dereferenceable(40) %52)
  call void (ptr, ptr, ...) @_ZN12outputStream8print_crEPKcz(ptr noundef nonnull align 8 dereferenceable(56) %51, ptr noundef @.str.73, ptr noundef %53)
  %54 = load ptr, ptr @tty, align 8
  %55 = load ptr, ptr %5, align 8
  %56 = call noundef i32 @_ZNK11FileMapInfo7versionEv(ptr noundef nonnull align 8 dereferenceable(40) %55)
  call void (ptr, ptr, ...) @_ZN12outputStream8print_crEPKcz(ptr noundef nonnull align 8 dereferenceable(56) %54, ptr noundef @.str.74, i32 noundef %56)
  %57 = load ptr, ptr @tty, align 8
  call void @_ZN22SystemDictionaryShared20print_shared_archiveEP12outputStreamb(ptr noundef %57, i1 noundef zeroext false)
  br label %58

58:                                               ; preds = %50, %46
  call void @_ZN18CountSharedSymbolsC2Ev(ptr noundef nonnull align 8 dereferenceable(12) %8)
  call void @_ZN11SymbolTable17shared_symbols_doEP13SymbolClosure(ptr noundef %8)
  %59 = load ptr, ptr @tty, align 8
  %60 = call noundef i32 @_ZN18CountSharedSymbols5totalEv(ptr noundef nonnull align 8 dereferenceable(12) %8)
  call void (ptr, ptr, ...) @_ZN12outputStream8print_crEPKcz(ptr noundef nonnull align 8 dereferenceable(56) %59, ptr noundef @.str.75, i32 noundef %60)
  %61 = load ptr, ptr @tty, align 8
  %62 = call noundef i64 @_ZN11StringTable18shared_entry_countEv()
  call void (ptr, ptr, ...) @_ZN12outputStream8print_crEPKcz(ptr noundef nonnull align 8 dereferenceable(56) %61, ptr noundef @.str.76, i64 noundef %62)
  %63 = load ptr, ptr @tty, align 8
  %64 = load ptr, ptr %1, align 8
  %65 = call noundef ptr @_ZN11FileMapInfo10vm_versionEv(ptr noundef nonnull align 8 dereferenceable(40) %64)
  call void (ptr, ptr, ...) @_ZN12outputStream8print_crEPKcz(ptr noundef nonnull align 8 dereferenceable(56) %63, ptr noundef @.str.77, ptr noundef %65)
  %66 = call noundef ptr @_ZN11FileMapInfo12current_infoEv()
  %67 = icmp eq ptr %66, null
  br i1 %67, label %71, label %68

68:                                               ; preds = %58
  %69 = load i8, ptr @_ZN15MetaspaceShared23_archive_loading_failedE, align 1
  %70 = trunc i8 %69 to i1
  br i1 %70, label %71, label %73

71:                                               ; preds = %68, %58
  %72 = load ptr, ptr @tty, align 8
  call void (ptr, ptr, ...) @_ZN12outputStream8print_crEPKcz(ptr noundef nonnull align 8 dereferenceable(56) %72, ptr noundef @.str.78)
  call void @_Z7vm_exiti(i32 noundef 1)
  br label %75

73:                                               ; preds = %68
  %74 = load ptr, ptr @tty, align 8
  call void (ptr, ptr, ...) @_ZN12outputStream8print_crEPKcz(ptr noundef nonnull align 8 dereferenceable(56) %74, ptr noundef @.str.79)
  call void @_Z7vm_exiti(i32 noundef 0)
  br label %75

75:                                               ; preds = %73, %71
  br label %76

76:                                               ; preds = %75, %27
  ret void
}