; Function Attrs: mustprogress nounwind uwtable
define hidden void @_ZN15MetaspaceShared24initialize_shared_spacesEv() local_unnamed_addr #3 align 2 {
  %1 = alloca ptr, align 8
  %2 = alloca %class.ReadClosure, align 8
  %3 = alloca ptr, align 8
  %4 = alloca %class.ReadClosure, align 8
  %5 = alloca %class.CountSharedSymbols, align 8
  %6 = load ptr, ptr @_ZN11FileMapInfo13_current_infoE, align 8
  %7 = getelementptr inbounds i8, ptr %6, i64 32
  %8 = load ptr, ptr %7, align 8
  %9 = getelementptr inbounds i8, ptr %8, i64 432
  %10 = load i64, ptr %9, align 8
  %11 = getelementptr inbounds i8, ptr %8, i64 736
  %12 = load ptr, ptr %11, align 8
  %13 = getelementptr inbounds i8, ptr %12, i64 %10
  store ptr %13, ptr %1, align 8
  store ptr getelementptr inbounds inrange(-16, 56) (i8, ptr @_ZTV11ReadClosure, i64 16), ptr %2, align 8
  %14 = getelementptr inbounds i8, ptr %2, i64 8
  store ptr %1, ptr %14, align 8
  call void @_ZN15MetaspaceShared9serializeEP16SerializeClosure(ptr noundef nonnull %2)
  call void @_ZN11FileMapInfo28patch_heap_embedded_pointersEv(ptr noundef nonnull align 8 dereferenceable(40) %6) #15
  call void @_ZN17ArchiveHeapLoader21finish_initializationEv() #15
  call void @_ZN8Universe30load_archived_object_instancesEv() #15
  call void @_ZN11FileMapInfo5closeEv(ptr noundef nonnull align 8 dereferenceable(40) %6) #15
  call void @_ZN11FileMapInfo12unmap_regionEi(ptr noundef nonnull align 8 dereferenceable(40) %6, i32 noundef 2) #15
  %15 = load ptr, ptr @_ZN11FileMapInfo21_dynamic_archive_infoE, align 8
  %.not = icmp eq ptr %15, null
  br i1 %.not, label %25, label %16

16:                                               ; preds = %0
  %17 = getelementptr inbounds i8, ptr %15, i64 32
  %18 = load ptr, ptr %17, align 8
  %19 = getelementptr inbounds i8, ptr %18, i64 432
  %20 = load i64, ptr %19, align 8
  %21 = getelementptr inbounds i8, ptr %18, i64 736
  %22 = load ptr, ptr %21, align 8
  %23 = getelementptr inbounds i8, ptr %22, i64 %20
  store ptr %23, ptr %3, align 8
  store ptr getelementptr inbounds inrange(-16, 56) (i8, ptr @_ZTV11ReadClosure, i64 16), ptr %4, align 8
  %24 = getelementptr inbounds i8, ptr %4, i64 8
  store ptr %3, ptr %24, align 8
  call void @_ZN14ArchiveBuilder34serialize_dynamic_archivable_itemsEP16SerializeClosure(ptr noundef nonnull %4) #15
  call void @_ZN14DynamicArchive19setup_array_klassesEv() #15
  call void @_ZN11FileMapInfo5closeEv(ptr noundef nonnull align 8 dereferenceable(40) %15) #15
  call void @_ZN11FileMapInfo12unmap_regionEi(ptr noundef nonnull align 8 dereferenceable(40) %15, i32 noundef 2) #15
  br label %25

25:                                               ; preds = %16, %0
  %26 = load i8, ptr @_ZN9CDSConfig27_is_dumping_dynamic_archiveE, align 1
  %27 = trunc i8 %26 to i1
  br i1 %27, label %28, label %29

28:                                               ; preds = %25
  call void @_ZN18LambdaFormInvokers28read_static_archive_invokersEv() #15
  br label %29

29:                                               ; preds = %28, %25
  %30 = load i8, ptr @PrintSharedArchiveAndExit, align 1
  %31 = trunc i8 %30 to i1
  br i1 %31, label %32, label %70

32:                                               ; preds = %29
  %33 = load ptr, ptr @tty, align 8
  br i1 %.not, label %.thread, label %40

.thread:                                          ; preds = %32
  %34 = getelementptr inbounds i8, ptr %6, i64 16
  %35 = load ptr, ptr %34, align 8
  call void (ptr, ptr, ...) @_ZN12outputStream8print_crEPKcz(ptr noundef nonnull align 8 dereferenceable(56) %33, ptr noundef nonnull @.str.71, ptr noundef %35) #15
  %36 = load ptr, ptr @tty, align 8
  %37 = load ptr, ptr %7, align 8
  %38 = getelementptr inbounds i8, ptr %37, i64 8
  %39 = load i32, ptr %38, align 8
  call void (ptr, ptr, ...) @_ZN12outputStream8print_crEPKcz(ptr noundef nonnull align 8 dereferenceable(56) %36, ptr noundef nonnull @.str.72, i32 noundef %39) #15
  br label %.sink.split

40:                                               ; preds = %32
  %41 = load ptr, ptr @_ZN9CDSConfig20_static_archive_pathE, align 8
  call void (ptr, ptr, ...) @_ZN12outputStream8print_crEPKcz(ptr noundef nonnull align 8 dereferenceable(56) %33, ptr noundef nonnull @.str.69, ptr noundef %41) #15
  %42 = load ptr, ptr @tty, align 8
  %43 = load ptr, ptr %7, align 8
  %44 = getelementptr inbounds i8, ptr %43, i64 8
  %45 = load i32, ptr %44, align 8
  call void (ptr, ptr, ...) @_ZN12outputStream8print_crEPKcz(ptr noundef nonnull align 8 dereferenceable(56) %42, ptr noundef nonnull @.str.70, i32 noundef %45) #15
  %46 = load ptr, ptr @tty, align 8
  call void @_ZN22SystemDictionaryShared20print_shared_archiveEP12outputStreamb(ptr noundef %46, i1 noundef zeroext true) #15
  %47 = load ptr, ptr @tty, align 8
  %48 = getelementptr inbounds i8, ptr %15, i64 16
  %49 = load ptr, ptr %48, align 8
  call void (ptr, ptr, ...) @_ZN12outputStream8print_crEPKcz(ptr noundef nonnull align 8 dereferenceable(56) %47, ptr noundef nonnull @.str.73, ptr noundef %49) #15
  %50 = load ptr, ptr @tty, align 8
  %51 = getelementptr inbounds i8, ptr %15, i64 32
  %52 = load ptr, ptr %51, align 8
  %53 = getelementptr inbounds i8, ptr %52, i64 8
  %54 = load i32, ptr %53, align 8
  call void (ptr, ptr, ...) @_ZN12outputStream8print_crEPKcz(ptr noundef nonnull align 8 dereferenceable(56) %50, ptr noundef nonnull @.str.74, i32 noundef %54) #15
  br label %.sink.split

.sink.split:                                      ; preds = %.thread, %40
  %55 = load ptr, ptr @tty, align 8
  call void @_ZN22SystemDictionaryShared20print_shared_archiveEP12outputStreamb(ptr noundef %55, i1 noundef zeroext %.not) #15
  store ptr getelementptr inbounds inrange(-16, 8) (i8, ptr @_ZTV18CountSharedSymbols, i64 16), ptr %5, align 8
  %56 = getelementptr inbounds i8, ptr %5, i64 8
  store i32 0, ptr %56, align 8
  call void @_ZN11SymbolTable17shared_symbols_doEP13SymbolClosure(ptr noundef nonnull %5) #15
  %57 = load ptr, ptr @tty, align 8
  %58 = load i32, ptr %56, align 8
  call void (ptr, ptr, ...) @_ZN12outputStream8print_crEPKcz(ptr noundef nonnull align 8 dereferenceable(56) %57, ptr noundef nonnull @.str.75, i32 noundef %58) #15
  %59 = load ptr, ptr @tty, align 8
  %60 = call noundef i64 @_ZN11StringTable18shared_entry_countEv() #15
  call void (ptr, ptr, ...) @_ZN12outputStream8print_crEPKcz(ptr noundef nonnull align 8 dereferenceable(56) %59, ptr noundef nonnull @.str.76, i64 noundef %60) #15
  %61 = load ptr, ptr @tty, align 8
  %62 = load ptr, ptr %7, align 8
  %63 = getelementptr inbounds i8, ptr %62, i64 448
  call void (ptr, ptr, ...) @_ZN12outputStream8print_crEPKcz(ptr noundef nonnull align 8 dereferenceable(56) %61, ptr noundef nonnull @.str.77, ptr noundef nonnull %63) #15
  %64 = load ptr, ptr @_ZN11FileMapInfo13_current_infoE, align 8
  %65 = icmp eq ptr %64, null
  %66 = load i8, ptr @_ZN15MetaspaceShared23_archive_loading_failedE, align 1
  %67 = trunc i8 %66 to i1
  %.mask = and i8 %66, 1
  %spec.select19 = zext nneg i8 %.mask to i32
  %68 = select i1 %65, i1 true, i1 %67
  %.str.78.sink = select i1 %68, ptr @.str.78, ptr @.str.79
  %.sink = select i1 %65, i32 1, i32 %spec.select19
  %69 = load ptr, ptr @tty, align 8
  call void (ptr, ptr, ...) @_ZN12outputStream8print_crEPKcz(ptr noundef nonnull align 8 dereferenceable(56) %69, ptr noundef nonnull %.str.78.sink) #15
  call void @_Z7vm_exiti(i32 noundef %.sink) #15
  br label %70

70:                                               ; preds = %.sink.split, %29
  ret void
}